target datalayout = "e-m:e-p270:32:32-p271:32:32-p272:64:64-i64:64-i128:128-f80:128-n8:16:32:64-S128"
target triple = "x86_64-pc-linux-gnu"

; Function Attrs: nounwind uwtable
define internal void @ps_add_squares_c(ptr noalias noundef %0, ptr noundef %1, i32 noundef %2) #1 {
  %4 = alloca ptr, align 8
  %5 = alloca ptr, align 8
  %6 = alloca i32, align 4
  %7 = alloca i32, align 4
  store ptr %0, ptr %4, align 8, !tbaa !17
  store ptr %1, ptr %5, align 8, !tbaa !17
  store i32 %2, ptr %6, align 4, !tbaa !19
  call void @llvm.lifetime.start.p0(i64 4, ptr %7) #4
  store i32 0, ptr %7, align 4, !tbaa !19
  br label %8

8:                                                ; preds = %46, %3
  %9 = load i32, ptr %7, align 4, !tbaa !19
  %10 = load i32, ptr %6, align 4, !tbaa !19
  %11 = icmp slt i32 %9, %10
  br i1 %11, label %13, label %12

12:                                               ; preds = %8
  call void @llvm.lifetime.end.p0(i64 4, ptr %7) #4
  br label %49

13:                                               ; preds = %8
  %14 = load ptr, ptr %5, align 8, !tbaa !17
  %15 = load i32, ptr %7, align 4, !tbaa !19
  %16 = sext i32 %15 to i64
  %17 = getelementptr inbounds [2 x float], ptr %14, i64 %16
  %18 = getelementptr inbounds [2 x float], ptr %17, i64 0, i64 0
  %19 = load float, ptr %18, align 4, !tbaa !21
  %20 = load ptr, ptr %5, align 8, !tbaa !17
  %21 = load i32, ptr %7, align 4, !tbaa !19
  %22 = sext i32 %21 to i64
  %23 = getelementptr inbounds [2 x float], ptr %20, i64 %22
  %24 = getelementptr inbounds [2 x float], ptr %23, i64 0, i64 0
  %25 = load float, ptr %24, align 4, !tbaa !21
  %26 = load ptr, ptr %5, align 8, !tbaa !17
  %27 = load i32, ptr %7, align 4, !tbaa !19
  %28 = sext i32 %27 to i64
  %29 = getelementptr inbounds [2 x float], ptr %26, i64 %28
  %30 = getelementptr inbounds [2 x float], ptr %29, i64 0, i64 1
  %31 = load float, ptr %30, align 4, !tbaa !21
  %32 = load ptr, ptr %5, align 8, !tbaa !17
  %33 = load i32, ptr %7, align 4, !tbaa !19
  %34 = sext i32 %33 to i64
  %35 = getelementptr inbounds [2 x float], ptr %32, i64 %34
  %36 = getelementptr inbounds [2 x float], ptr %35, i64 0, i64 1
  %37 = load float, ptr %36, align 4, !tbaa !21
  %38 = fmul nsz float %31, %37
  %39 = call nsz float @llvm.fmuladd.f32(float %19, float %25, float %38)
  %40 = load ptr, ptr %4, align 8, !tbaa !17
  %41 = load i32, ptr %7, align 4, !tbaa !19
  %42 = sext i32 %41 to i64
  %43 = getelementptr inbounds float, ptr %40, i64 %42
  %44 = load float, ptr %43, align 4, !tbaa !21
  %45 = fadd nsz float %44, %39
  store float %45, ptr %43, align 4, !tbaa !21
  br label %46

46:                                               ; preds = %13
  %47 = load i32, ptr %7, align 4, !tbaa !19
  %48 = add nsw i32 %47, 1
  store i32 %48, ptr %7, align 4, !tbaa !19
  br label %8, !llvm.loop !23

49:                                               ; preds = %12
  ret void
}