; Function Attrs: nofree norecurse nosync nounwind memory(argmem: readwrite) uwtable
define internal void @ps_add_squares_c(ptr noalias noundef captures(none) %0, ptr noundef readonly captures(none) %1, i32 noundef %2) #1 {
  %4 = icmp sgt i32 %2, 0
  br i1 %4, label %.lr.ph.preheader, label %._crit_edge

.lr.ph.preheader:                                 ; preds = %3
  %wide.trip.count = zext nneg i32 %2 to i64
  br label %.lr.ph

._crit_edge:                                      ; preds = %.lr.ph, %3
  ret void

.lr.ph:                                           ; preds = %.lr.ph.preheader, %.lr.ph
  %indvars.iv = phi i64 [ 0, %.lr.ph.preheader ], [ %indvars.iv.next, %.lr.ph ]
  %5 = getelementptr inbounds nuw [2 x float], ptr %1, i64 %indvars.iv
  %6 = load float, ptr %5, align 4, !tbaa !15
  %7 = getelementptr inbounds nuw i8, ptr %5, i64 4
  %8 = load float, ptr %7, align 4, !tbaa !15
  %9 = fmul nsz float %8, %8
  %10 = tail call nsz float @llvm.fmuladd.f32(float %6, float %6, float %9)
  %11 = getelementptr inbounds nuw float, ptr %0, i64 %indvars.iv
  %12 = load float, ptr %11, align 4, !tbaa !15
  %13 = fadd nsz float %12, %10
  store float %13, ptr %11, align 4, !tbaa !15
  %indvars.iv.next = add nuw nsw i64 %indvars.iv, 1
  %exitcond.not = icmp eq i64 %indvars.iv.next, %wide.trip.count
  br i1 %exitcond.not, label %._crit_edge, label %.lr.ph, !llvm.loop !17
}